target datalayout = "e-m:e-p270:32:32-p271:32:32-p272:64:64-i64:64-i128:128-f80:128-n8:16:32:64-S128"
target triple = "x86_64-pc-linux-gnu"

%"class.pxrInternal_v0_24__pxrReserved__::GfColorSpace" = type { %"class.std::shared_ptr" }
%"class.std::shared_ptr" = type { %"class.std::__shared_ptr" }
%"class.std::__shared_ptr" = type { ptr, %"class.std::__shared_count" }
%"class.std::__shared_count" = type { ptr }
%"struct.pxrInternal_v0_24__pxrReserved__::GfColorSpace::_Data" = type { ptr }
%"class.pxrInternal_v0_24__pxrReserved__::TfSpan" = type { ptr, i64 }
%"class.pxrInternal_v0_24__pxrReserved__::TfCallContext" = type <{ ptr, ptr, i64, ptr, i8, [7 x i8] }>

@.str.21 = private unnamed_addr constant [120 x i8] c"generated/home/dtcxzyw/WorkSpace/Projects/compilers/llvm-opt-benchmark/bench/openusd/OpenUSD/pxr/base/gf/colorSpace.cpp\00", align 1
@__func__._ZNK32pxrInternal_v0_24__pxrReserved__12GfColorSpace15ConvertRGBASpanERKS0_NS_6TfSpanIfEE = private unnamed_addr constant [16 x i8] c"ConvertRGBASpan\00", align 1
@__PRETTY_FUNCTION__._ZNK32pxrInternal_v0_24__pxrReserved__12GfColorSpace15ConvertRGBASpanERKS0_NS_6TfSpanIfEE = private unnamed_addr constant [112 x i8] c"void pxrInternal_v0_24__pxrReserved__::GfColorSpace::ConvertRGBASpan(const GfColorSpace &, TfSpan<float>) const\00", align 1
@.str.23 = private unnamed_addr constant [40 x i8] c"RGBA array size must be a multiple of 4\00", align 1

; Function Attrs: mustprogress nounwind uwtable
define linkonce_odr noundef ptr @_ZNKSt12__shared_ptrIN32pxrInternal_v0_24__pxrReserved__12GfColorSpace5_DataELN9__gnu_cxx12_Lock_policyE2EE3getEv(ptr noundef nonnull align 8 dereferenceable(16) %0) #2 comdat align 2 {
  %2 = alloca ptr, align 8
  store ptr %0, ptr %2, align 8
  %3 = load ptr, ptr %2, align 8
  %4 = getelementptr inbounds nuw %"class.std::__shared_ptr", ptr %3, i32 0, i32 0
  %5 = load ptr, ptr %4, align 8
  ret ptr %5
}

; Function Attrs: mustprogress nounwind uwtable
define linkonce_odr noundef ptr @_ZNKSt19__shared_ptr_accessIN32pxrInternal_v0_24__pxrReserved__12GfColorSpace5_DataELN9__gnu_cxx12_Lock_policyE2ELb0ELb0EE6_M_getEv(ptr noundef nonnull align 1 dereferenceable(1) %0) #2 comdat align 2 {
  %2 = alloca ptr, align 8
  store ptr %0, ptr %2, align 8
  %3 = load ptr, ptr %2, align 8
  %4 = call noundef ptr @_ZNKSt12__shared_ptrIN32pxrInternal_v0_24__pxrReserved__12GfColorSpace5_DataELN9__gnu_cxx12_Lock_policyE2EE3getEv(ptr noundef nonnull align 8 dereferenceable(16) %3) #9
  ret ptr %4
}

; Function Attrs: mustprogress nounwind uwtable
define linkonce_odr noundef ptr @_ZNK32pxrInternal_v0_24__pxrReserved__6TfSpanIfE4dataEv(ptr noundef nonnull align 8 dereferenceable(16) %0) #2 comdat align 2 {
  %2 = alloca ptr, align 8
  store ptr %0, ptr %2, align 8
  %3 = load ptr, ptr %2, align 8
  %4 = getelementptr inbounds nuw %"class.pxrInternal_v0_24__pxrReserved__::TfSpan", ptr %3, i32 0, i32 0
  %5 = load ptr, ptr %4, align 8
  ret ptr %5
}

; Function Attrs: mustprogress nounwind uwtable
define linkonce_odr noundef ptr @_ZNKSt19__shared_ptr_accessIN32pxrInternal_v0_24__pxrReserved__12GfColorSpace5_DataELN9__gnu_cxx12_Lock_policyE2ELb0ELb0EEptEv(ptr noundef nonnull align 1 dereferenceable(1) %0) #2 comdat align 2 {
  %2 = alloca ptr, align 8
  store ptr %0, ptr %2, align 8
  %3 = load ptr, ptr %2, align 8
  %4 = call noundef ptr @_ZNKSt19__shared_ptr_accessIN32pxrInternal_v0_24__pxrReserved__12GfColorSpace5_DataELN9__gnu_cxx12_Lock_policyE2ELb0ELb0EE6_M_getEv(ptr noundef nonnull align 1 dereferenceable(1) %3) #9
  ret ptr %4
}

; Function Attrs: mustprogress nounwind uwtable
define linkonce_odr void @_ZN32pxrInternal_v0_24__pxrReserved__13TfCallContextC2EPKcS2_mS2_(ptr noundef nonnull align 8 dereferenceable(33) %0, ptr noundef %1, ptr noundef %2, i64 noundef %3, ptr noundef %4) unnamed_addr #2 comdat align 2 {
  %6 = alloca ptr, align 8
  %7 = alloca ptr, align 8
  %8 = alloca ptr, align 8
  %9 = alloca i64, align 8
  %10 = alloca ptr, align 8
  store ptr %0, ptr %6, align 8
  store ptr %1, ptr %7, align 8
  store ptr %2, ptr %8, align 8
  store i64 %3, ptr %9, align 8
  store ptr %4, ptr %10, align 8
  %11 = load ptr, ptr %6, align 8
  %12 = getelementptr inbounds nuw %"class.pxrInternal_v0_24__pxrReserved__::TfCallContext", ptr %11, i32 0, i32 0
  %13 = load ptr, ptr %7, align 8
  store ptr %13, ptr %12, align 8
  %14 = getelementptr inbounds nuw %"class.pxrInternal_v0_24__pxrReserved__::TfCallContext", ptr %11, i32 0, i32 1
  %15 = load ptr, ptr %8, align 8
  store ptr %15, ptr %14, align 8
  %16 = getelementptr inbounds nuw %"class.pxrInternal_v0_24__pxrReserved__::TfCallContext", ptr %11, i32 0, i32 2
  %17 = load i64, ptr %9, align 8
  store i64 %17, ptr %16, align 8
  %18 = getelementptr inbounds nuw %"class.pxrInternal_v0_24__pxrReserved__::TfCallContext", ptr %11, i32 0, i32 3
  %19 = load ptr, ptr %10, align 8
  store ptr %19, ptr %18, align 8
  %20 = getelementptr inbounds nuw %"class.pxrInternal_v0_24__pxrReserved__::TfCallContext", ptr %11, i32 0, i32 4
  store i8 0, ptr %20, align 8
  ret void
}

; Function Attrs: mustprogress nounwind uwtable
define linkonce_odr noundef i64 @_ZNK32pxrInternal_v0_24__pxrReserved__6TfSpanIfE4sizeEv(ptr noundef nonnull align 8 dereferenceable(16) %0) #2 comdat align 2 {
  %2 = alloca ptr, align 8
  store ptr %0, ptr %2, align 8
  %3 = load ptr, ptr %2, align 8
  %4 = getelementptr inbounds nuw %"class.pxrInternal_v0_24__pxrReserved__::TfSpan", ptr %3, i32 0, i32 1
  %5 = load i64, ptr %4, align 8
  ret i64 %5
}

; Function Attrs: mustprogress uwtable
define void @_ZNK32pxrInternal_v0_24__pxrReserved__12GfColorSpace15ConvertRGBASpanERKS0_NS_6TfSpanIfEE(ptr noundef nonnull align 8 dereferenceable(16) %0, ptr noundef nonnull align 8 dereferenceable(16) %1, ptr %2, i64 %3) #0 align 2 {
  %5 = alloca %"class.pxrInternal_v0_24__pxrReserved__::TfSpan", align 8
  %6 = alloca ptr, align 8
  %7 = alloca ptr, align 8
  %8 = alloca i64, align 8
  %9 = alloca %"class.pxrInternal_v0_24__pxrReserved__::TfCallContext", align 8
  %10 = getelementptr inbounds nuw { ptr, i64 }, ptr %5, i32 0, i32 0
  store ptr %2, ptr %10, align 8
  %11 = getelementptr inbounds nuw { ptr, i64 }, ptr %5, i32 0, i32 1
  store i64 %3, ptr %11, align 8
  store ptr %0, ptr %6, align 8
  store ptr %1, ptr %7, align 8
  %12 = load ptr, ptr %6, align 8
  %13 = call noundef i64 @_ZNK32pxrInternal_v0_24__pxrReserved__6TfSpanIfE4sizeEv(ptr noundef nonnull align 8 dereferenceable(16) %5) #9
  %14 = udiv i64 %13, 4
  store i64 %14, ptr %8, align 8
  %15 = load i64, ptr %8, align 8
  %16 = icmp ne i64 %15, 0
  br i1 %16, label %17, label %22

17:                                               ; preds = %4
  %18 = load i64, ptr %8, align 8
  %19 = mul i64 %18, 4
  %20 = call noundef i64 @_ZNK32pxrInternal_v0_24__pxrReserved__6TfSpanIfE4sizeEv(ptr noundef nonnull align 8 dereferenceable(16) %5) #9
  %21 = icmp ne i64 %19, %20
  br i1 %21, label %22, label %23

22:                                               ; preds = %17, %4
  call void @_ZN32pxrInternal_v0_24__pxrReserved__13TfCallContextC2EPKcS2_mS2_(ptr noundef nonnull align 8 dereferenceable(33) %9, ptr noundef @.str.21, ptr noundef @__func__._ZNK32pxrInternal_v0_24__pxrReserved__12GfColorSpace15ConvertRGBASpanERKS0_NS_6TfSpanIfEE, i64 noundef 116, ptr noundef @__PRETTY_FUNCTION__._ZNK32pxrInternal_v0_24__pxrReserved__12GfColorSpace15ConvertRGBASpanERKS0_NS_6TfSpanIfEE)
  call void (ptr, i32, ptr, ...) @_ZN32pxrInternal_v0_24__pxrReserved__18Tf_PostErrorHelperERKNS_13TfCallContextENS_16TfDiagnosticTypeEPKcz(ptr noundef nonnull align 8 dereferenceable(33) %9, i32 noundef 1, ptr noundef @.str.23)
  br label %37

23:                                               ; preds = %17
  %24 = load ptr, ptr %7, align 8
  %25 = getelementptr inbounds nuw %"class.pxrInternal_v0_24__pxrReserved__::GfColorSpace", ptr %24, i32 0, i32 0
  %26 = call noundef ptr @_ZNKSt19__shared_ptr_accessIN32pxrInternal_v0_24__pxrReserved__12GfColorSpace5_DataELN9__gnu_cxx12_Lock_policyE2ELb0ELb0EEptEv(ptr noundef nonnull align 1 dereferenceable(1) %25) #9
  %27 = getelementptr inbounds nuw %"struct.pxrInternal_v0_24__pxrReserved__::GfColorSpace::_Data", ptr %26, i32 0, i32 0
  %28 = load ptr, ptr %27, align 8
  %29 = getelementptr inbounds nuw %"class.pxrInternal_v0_24__pxrReserved__::GfColorSpace", ptr %12, i32 0, i32 0
  %30 = call noundef ptr @_ZNKSt19__shared_ptr_accessIN32pxrInternal_v0_24__pxrReserved__12GfColorSpace5_DataELN9__gnu_cxx12_Lock_policyE2ELb0ELb0EEptEv(ptr noundef nonnull align 1 dereferenceable(1) %29) #9
  %31 = getelementptr inbounds nuw %"struct.pxrInternal_v0_24__pxrReserved__::GfColorSpace::_Data", ptr %30, i32 0, i32 0
  %32 = load ptr, ptr %31, align 8
  %33 = call noundef ptr @_ZNK32pxrInternal_v0_24__pxrReserved__6TfSpanIfE4dataEv(ptr noundef nonnull align 8 dereferenceable(16) %5) #9
  %34 = load i64, ptr %8, align 8
  %35 = trunc i64 %34 to i32
  %36 = sext i32 %35 to i64
  call void @pxr_nc_1_0_TransformColorsWithAlpha(ptr noundef %28, ptr noundef %32, ptr noundef %33, i64 noundef %36)
  br label %37

37:                                               ; preds = %23, %22
  ret void
}