; Function Attrs: mustprogress uwtable
define void @_ZNK32pxrInternal_v0_24__pxrReserved__12GfColorSpace15ConvertRGBASpanERKS0_NS_6TfSpanIfEE(ptr noundef nonnull readonly align 8 captures(none) dereferenceable(16) %0, ptr noundef nonnull readonly align 8 captures(none) dereferenceable(16) %1, ptr %2, i64 %3) local_unnamed_addr #0 align 2 {
  %5 = alloca %"class.pxrInternal_v0_24__pxrReserved__::TfCallContext", align 8
  %.not = icmp ugt i64 %3, 3
  %6 = and i64 %3, 3
  %.not4 = icmp eq i64 %6, 0
  %or.cond = and i1 %.not, %.not4
  br i1 %or.cond, label %12, label %7

7:                                                ; preds = %4
  store ptr @.str.21, ptr %5, align 8
  %8 = getelementptr inbounds nuw i8, ptr %5, i64 8
  store ptr @__func__._ZNK32pxrInternal_v0_24__pxrReserved__12GfColorSpace15ConvertRGBASpanERKS0_NS_6TfSpanIfEE, ptr %8, align 8
  %9 = getelementptr inbounds nuw i8, ptr %5, i64 16
  store i64 116, ptr %9, align 8
  %10 = getelementptr inbounds nuw i8, ptr %5, i64 24
  store ptr @__PRETTY_FUNCTION__._ZNK32pxrInternal_v0_24__pxrReserved__12GfColorSpace15ConvertRGBASpanERKS0_NS_6TfSpanIfEE, ptr %10, align 8
  %11 = getelementptr inbounds nuw i8, ptr %5, i64 32
  store i8 0, ptr %11, align 8
  call void (ptr, i32, ptr, ...) @_ZN32pxrInternal_v0_24__pxrReserved__18Tf_PostErrorHelperERKNS_13TfCallContextENS_16TfDiagnosticTypeEPKcz(ptr noundef nonnull align 8 dereferenceable(33) %5, i32 noundef 1, ptr noundef nonnull @.str.23)
  br label %19

12:                                               ; preds = %4
  %13 = load ptr, ptr %1, align 8
  %14 = load ptr, ptr %13, align 8
  %15 = load ptr, ptr %0, align 8
  %16 = load ptr, ptr %15, align 8
  %17 = shl i64 %3, 30
  %18 = ashr exact i64 %17, 32
  tail call void @pxr_nc_1_0_TransformColorsWithAlpha(ptr noundef %14, ptr noundef %16, ptr noundef %2, i64 noundef %18)
  br label %19

19:                                               ; preds = %12, %7
  ret void
}